target datalayout = "e-m:e-p270:32:32-p271:32:32-p272:64:64-i64:64-i128:128-f80:128-n8:16:32:64-S128"
target triple = "x86_64-pc-linux-gnu"

; Function Attrs: nounwind uwtable
define void @ff_vvc_inv_dct2_4(ptr noundef %0, i64 noundef %1, i64 noundef %2) #0 {
  %4 = alloca ptr, align 8
  %5 = alloca i64, align 8
  %6 = alloca i64, align 8
  %7 = alloca i32, align 4
  %8 = alloca i32, align 4
  %9 = alloca i32, align 4
  %10 = alloca i32, align 4
  %11 = alloca i32, align 4
  %12 = alloca i32, align 4
  %13 = alloca i32, align 4
  %14 = alloca [2 x i32], align 4
  %15 = alloca [2 x i32], align 4
  store ptr %0, ptr %4, align 8, !tbaa !4
  store i64 %1, ptr %5, align 8, !tbaa !9
  store i64 %2, ptr %6, align 8, !tbaa !9
  call void @llvm.lifetime.start.p0(i64 4, ptr %7) #3
  store i32 64, ptr %7, align 4, !tbaa !11
  call void @llvm.lifetime.start.p0(i64 4, ptr %8) #3
  store i32 83, ptr %8, align 4, !tbaa !11
  call void @llvm.lifetime.start.p0(i64 4, ptr %9) #3
  store i32 36, ptr %9, align 4, !tbaa !11
  call void @llvm.lifetime.start.p0(i64 4, ptr %10) #3
  %16 = load ptr, ptr %4, align 8, !tbaa !4
  %17 = load i64, ptr %5, align 8, !tbaa !9
  %18 = mul nsw i64 0, %17
  %19 = getelementptr inbounds i32, ptr %16, i64 %18
  %20 = load i32, ptr %19, align 4, !tbaa !11
  store i32 %20, ptr %10, align 4, !tbaa !11
  call void @llvm.lifetime.start.p0(i64 4, ptr %11) #3
  %21 = load ptr, ptr %4, align 8, !tbaa !4
  %22 = load i64, ptr %5, align 8, !tbaa !9
  %23 = mul nsw i64 1, %22
  %24 = getelementptr inbounds i32, ptr %21, i64 %23
  %25 = load i32, ptr %24, align 4, !tbaa !11
  store i32 %25, ptr %11, align 4, !tbaa !11
  call void @llvm.lifetime.start.p0(i64 4, ptr %12) #3
  %26 = load ptr, ptr %4, align 8, !tbaa !4
  %27 = load i64, ptr %5, align 8, !tbaa !9
  %28 = mul nsw i64 2, %27
  %29 = getelementptr inbounds i32, ptr %26, i64 %28
  %30 = load i32, ptr %29, align 4, !tbaa !11
  store i32 %30, ptr %12, align 4, !tbaa !11
  call void @llvm.lifetime.start.p0(i64 4, ptr %13) #3
  %31 = load ptr, ptr %4, align 8, !tbaa !4
  %32 = load i64, ptr %5, align 8, !tbaa !9
  %33 = mul nsw i64 3, %32
  %34 = getelementptr inbounds i32, ptr %31, i64 %33
  %35 = load i32, ptr %34, align 4, !tbaa !11
  store i32 %35, ptr %13, align 4, !tbaa !11
  call void @llvm.lifetime.start.p0(i64 8, ptr %14) #3
  %36 = load i32, ptr %10, align 4, !tbaa !11
  %37 = load i64, ptr %6, align 8, !tbaa !9
  %38 = icmp ugt i64 %37, 2
  br i1 %38, label %39, label %41

39:                                               ; preds = %3
  %40 = load i32, ptr %12, align 4, !tbaa !11
  br label %42

41:                                               ; preds = %3
  br label %42

42:                                               ; preds = %41, %39
  %43 = phi i32 [ %40, %39 ], [ 0, %41 ]
  %44 = add nsw i32 %36, %43
  %45 = mul nsw i32 64, %44
  store i32 %45, ptr %14, align 4, !tbaa !11
  %46 = getelementptr inbounds i32, ptr %14, i64 1
  %47 = load i32, ptr %10, align 4, !tbaa !11
  %48 = load i64, ptr %6, align 8, !tbaa !9
  %49 = icmp ugt i64 %48, 2
  br i1 %49, label %50, label %53

50:                                               ; preds = %42
  %51 = load i32, ptr %12, align 4, !tbaa !11
  %52 = sub nsw i32 0, %51
  br label %54

53:                                               ; preds = %42
  br label %54

54:                                               ; preds = %53, %50
  %55 = phi i32 [ %52, %50 ], [ 0, %53 ]
  %56 = add nsw i32 %47, %55
  %57 = mul nsw i32 64, %56
  store i32 %57, ptr %46, align 4, !tbaa !11
  call void @llvm.lifetime.start.p0(i64 8, ptr %15) #3
  %58 = load i32, ptr %11, align 4, !tbaa !11
  %59 = mul nsw i32 83, %58
  %60 = load i64, ptr %6, align 8, !tbaa !9
  %61 = icmp ugt i64 %60, 2
  br i1 %61, label %62, label %65

62:                                               ; preds = %54
  %63 = load i32, ptr %13, align 4, !tbaa !11
  %64 = mul nsw i32 36, %63
  br label %66

65:                                               ; preds = %54
  br label %66

66:                                               ; preds = %65, %62
  %67 = phi i32 [ %64, %62 ], [ 0, %65 ]
  %68 = add nsw i32 %59, %67
  store i32 %68, ptr %15, align 4, !tbaa !11
  %69 = getelementptr inbounds i32, ptr %15, i64 1
  %70 = load i32, ptr %11, align 4, !tbaa !11
  %71 = mul nsw i32 36, %70
  %72 = load i64, ptr %6, align 8, !tbaa !9
  %73 = icmp ugt i64 %72, 2
  br i1 %73, label %74, label %77

74:                                               ; preds = %66
  %75 = load i32, ptr %13, align 4, !tbaa !11
  %76 = mul nsw i32 -83, %75
  br label %78

77:                                               ; preds = %66
  br label %78

78:                                               ; preds = %77, %74
  %79 = phi i32 [ %76, %74 ], [ 0, %77 ]
  %80 = add nsw i32 %71, %79
  store i32 %80, ptr %69, align 4, !tbaa !11
  %81 = getelementptr inbounds [2 x i32], ptr %14, i64 0, i64 0
  %82 = load i32, ptr %81, align 4, !tbaa !11
  %83 = getelementptr inbounds [2 x i32], ptr %15, i64 0, i64 0
  %84 = load i32, ptr %83, align 4, !tbaa !11
  %85 = add nsw i32 %82, %84
  %86 = load ptr, ptr %4, align 8, !tbaa !4
  %87 = load i64, ptr %5, align 8, !tbaa !9
  %88 = mul nsw i64 0, %87
  %89 = getelementptr inbounds i32, ptr %86, i64 %88
  store i32 %85, ptr %89, align 4, !tbaa !11
  %90 = getelementptr inbounds [2 x i32], ptr %14, i64 0, i64 1
  %91 = load i32, ptr %90, align 4, !tbaa !11
  %92 = getelementptr inbounds [2 x i32], ptr %15, i64 0, i64 1
  %93 = load i32, ptr %92, align 4, !tbaa !11
  %94 = add nsw i32 %91, %93
  %95 = load ptr, ptr %4, align 8, !tbaa !4
  %96 = load i64, ptr %5, align 8, !tbaa !9
  %97 = mul nsw i64 1, %96
  %98 = getelementptr inbounds i32, ptr %95, i64 %97
  store i32 %94, ptr %98, align 4, !tbaa !11
  %99 = getelementptr inbounds [2 x i32], ptr %14, i64 0, i64 1
  %100 = load i32, ptr %99, align 4, !tbaa !11
  %101 = getelementptr inbounds [2 x i32], ptr %15, i64 0, i64 1
  %102 = load i32, ptr %101, align 4, !tbaa !11
  %103 = sub nsw i32 %100, %102
  %104 = load ptr, ptr %4, align 8, !tbaa !4
  %105 = load i64, ptr %5, align 8, !tbaa !9
  %106 = mul nsw i64 2, %105
  %107 = getelementptr inbounds i32, ptr %104, i64 %106
  store i32 %103, ptr %107, align 4, !tbaa !11
  %108 = getelementptr inbounds [2 x i32], ptr %14, i64 0, i64 0
  %109 = load i32, ptr %108, align 4, !tbaa !11
  %110 = getelementptr inbounds [2 x i32], ptr %15, i64 0, i64 0
  %111 = load i32, ptr %110, align 4, !tbaa !11
  %112 = sub nsw i32 %109, %111
  %113 = load ptr, ptr %4, align 8, !tbaa !4
  %114 = load i64, ptr %5, align 8, !tbaa !9
  %115 = mul nsw i64 3, %114
  %116 = getelementptr inbounds i32, ptr %113, i64 %115
  store i32 %112, ptr %116, align 4, !tbaa !11
  call void @llvm.lifetime.end.p0(i64 8, ptr %15) #3
  call void @llvm.lifetime.end.p0(i64 8, ptr %14) #3
  call void @llvm.lifetime.end.p0(i64 4, ptr %13) #3
  call void @llvm.lifetime.end.p0(i64 4, ptr %12) #3
  call void @llvm.lifetime.end.p0(i64 4, ptr %11) #3
  call void @llvm.lifetime.end.p0(i64 4, ptr %10) #3
  call void @llvm.lifetime.end.p0(i64 4, ptr %9) #3
  call void @llvm.lifetime.end.p0(i64 4, ptr %8) #3
  call void @llvm.lifetime.end.p0(i64 4, ptr %7) #3
  ret void
}