; Function Attrs: mustprogress nofree norecurse nosync nounwind willreturn memory(argmem: readwrite) uwtable
define void @ff_vvc_inv_dct2_4(ptr noundef captures(none) %0, i64 noundef %1, i64 noundef %2) local_unnamed_addr #0 {
  %4 = load i32, ptr %0, align 4, !tbaa !4
  %5 = getelementptr inbounds i32, ptr %0, i64 %1
  %6 = load i32, ptr %5, align 4, !tbaa !4
  %.idx = shl nsw i64 %1, 3
  %7 = getelementptr inbounds i8, ptr %0, i64 %.idx
  %8 = load i32, ptr %7, align 4, !tbaa !4
  %.idx33 = mul nsw i64 %1, 12
  %9 = getelementptr inbounds i8, ptr %0, i64 %.idx33
  %10 = load i32, ptr %9, align 4, !tbaa !4
  %11 = icmp ugt i64 %2, 2
  %12 = select i1 %11, i32 %8, i32 0
  %13 = add nsw i32 %12, %4
  %14 = shl nsw i32 %13, 6
  %15 = sub i32 %4, %12
  %16 = shl nsw i32 %15, 6
  %17 = mul nsw i32 %6, 83
  %18 = mul nsw i32 %10, 36
  %19 = select i1 %11, i32 %18, i32 0
  %20 = add nsw i32 %19, %17
  %21 = mul nsw i32 %6, 36
  %22 = mul nsw i32 %10, -83
  %23 = select i1 %11, i32 %22, i32 0
  %24 = add nsw i32 %23, %21
  %25 = add nsw i32 %20, %14
  store i32 %25, ptr %0, align 4, !tbaa !4
  %26 = add nsw i32 %24, %16
  store i32 %26, ptr %5, align 4, !tbaa !4
  %27 = sub nsw i32 %16, %24
  store i32 %27, ptr %7, align 4, !tbaa !4
  %28 = sub nsw i32 %14, %20
  store i32 %28, ptr %9, align 4, !tbaa !4
  ret void
}